; Listing generated by Microsoft (R) Optimizing Compiler Version 17.00.61030.0 

	TITLE	C:\Users\paind_000\Dysk Google\Grzesiek\Dokumenty\STUDIA\JA\Projekt\Hasla\DLLC\File.c
	.686P
	.XMM
	include listing.inc
	.model	flat

INCLUDELIB MSVCRTD
INCLUDELIB OLDNAMES

PUBLIC	_startTime
PUBLIC	_endTime
PUBLIC	_resultTime
PUBLIC	_endTimefull
PUBLIC	_startTimefull
PUBLIC	_CPUInfo
PUBLIC	_bSSE41Extensions
PUBLIC	_bSSE42Extensions
PUBLIC	_nLogicalProcessors
PUBLIC	_nFeatureInfo
PUBLIC	_bMultithreading
_DATA	SEGMENT
COMM	___@@_PchSym_@00@UfhvihUkzrmwPAAAUwbhpLtlltovUtiavhrvpUwlpfnvmgbUhgfwrzUqzUkilqvpgUszhozUwooxUwvyftUhgwzucOlyq@436CB9B52E1C589D:DWORD
_DATA	ENDS
_BSS	SEGMENT
_startTime DD	01H DUP (?)
_endTime DD	01H DUP (?)
_resultTime DD	01H DUP (?)
_endTimefull DD	01H DUP (?)
_startTimefull DD 01H DUP (?)
_bSSE41Extensions DB 01H DUP (?)
	ALIGN	4

_bSSE42Extensions DB 01H DUP (?)
	ALIGN	4

_nLogicalProcessors DD 01H DUP (?)
_nFeatureInfo DD 01H DUP (?)
_bMultithreading DB 01H DUP (?)
_BSS	ENDS
_DATA	SEGMENT
_CPUInfo DD	0ffffffffH
	ORG $+12
_DATA	ENDS
PUBLIC	_openFileAndGetNumberOfElements
PUBLIC	??_C@_01KDCPPGHE@r?$AA@				; `string'
EXTRN	__imp__fgets:PROC
EXTRN	__imp__fopen:PROC
EXTRN	__imp__atoi:PROC
EXTRN	__imp__free:PROC
EXTRN	__imp__malloc:PROC
EXTRN	__RTC_CheckEsp:PROC
EXTRN	__RTC_InitBase:PROC
EXTRN	__RTC_Shutdown:PROC
;	COMDAT rtc$TMZ
rtc$TMZ	SEGMENT
__RTC_Shutdown.rtc$TMZ DD FLAT:__RTC_Shutdown
rtc$TMZ	ENDS
;	COMDAT rtc$IMZ
rtc$IMZ	SEGMENT
__RTC_InitBase.rtc$IMZ DD FLAT:__RTC_InitBase
rtc$IMZ	ENDS
;	COMDAT ??_C@_01KDCPPGHE@r?$AA@
CONST	SEGMENT
??_C@_01KDCPPGHE@r?$AA@ DB 'r', 00H			; `string'
CONST	ENDS
; Function compile flags: /Odtp /RTCsu /ZI
; File c:\users\paind_000\dysk google\grzesiek\dokumenty\studia\ja\projekt\hasla\dllc\file.c
;	COMDAT _openFileAndGetNumberOfElements
_TEXT	SEGMENT
_chartmp$1 = -20					; size = 4
_tmp$ = -8						; size = 4
_name$ = 8						; size = 4
_numberofentries$ = 12					; size = 4
_openFileAndGetNumberOfElements PROC			; COMDAT

; 5    : {

  00000	55		 push	 ebp
  00001	8b ec		 mov	 ebp, esp
  00003	81 ec d8 00 00
	00		 sub	 esp, 216		; 000000d8H
  00009	53		 push	 ebx
  0000a	56		 push	 esi
  0000b	57		 push	 edi
  0000c	8d bd 28 ff ff
	ff		 lea	 edi, DWORD PTR [ebp-216]
  00012	b9 36 00 00 00	 mov	 ecx, 54			; 00000036H
  00017	b8 cc cc cc cc	 mov	 eax, -858993460		; ccccccccH
  0001c	f3 ab		 rep stosd

; 6    : 	FILE * tmp=fopen(name,"r");

  0001e	8b f4		 mov	 esi, esp
  00020	68 00 00 00 00	 push	 OFFSET ??_C@_01KDCPPGHE@r?$AA@
  00025	8b 45 08	 mov	 eax, DWORD PTR _name$[ebp]
  00028	50		 push	 eax
  00029	ff 15 00 00 00
	00		 call	 DWORD PTR __imp__fopen
  0002f	83 c4 08	 add	 esp, 8
  00032	3b f4		 cmp	 esi, esp
  00034	e8 00 00 00 00	 call	 __RTC_CheckEsp
  00039	89 45 f8	 mov	 DWORD PTR _tmp$[ebp], eax

; 7    : 
; 8    : 	if(tmp!=NULL)

  0003c	83 7d f8 00	 cmp	 DWORD PTR _tmp$[ebp], 0
  00040	74 61		 je	 SHORT $LN1@openFileAn

; 9    : 	{
; 10   : 		char * chartmp=(char *)malloc(sizeof(char) * MAX_LENGTH_WORD);

  00042	8b f4		 mov	 esi, esp
  00044	6a 20		 push	 32			; 00000020H
  00046	ff 15 00 00 00
	00		 call	 DWORD PTR __imp__malloc
  0004c	83 c4 04	 add	 esp, 4
  0004f	3b f4		 cmp	 esi, esp
  00051	e8 00 00 00 00	 call	 __RTC_CheckEsp
  00056	89 45 ec	 mov	 DWORD PTR _chartmp$1[ebp], eax

; 11   : 		*numberofentries=atoi(fgets(chartmp,MAX_LENGTH_WORD,tmp));

  00059	8b f4		 mov	 esi, esp
  0005b	8b 45 f8	 mov	 eax, DWORD PTR _tmp$[ebp]
  0005e	50		 push	 eax
  0005f	6a 20		 push	 32			; 00000020H
  00061	8b 4d ec	 mov	 ecx, DWORD PTR _chartmp$1[ebp]
  00064	51		 push	 ecx
  00065	ff 15 00 00 00
	00		 call	 DWORD PTR __imp__fgets
  0006b	83 c4 0c	 add	 esp, 12			; 0000000cH
  0006e	3b f4		 cmp	 esi, esp
  00070	e8 00 00 00 00	 call	 __RTC_CheckEsp
  00075	8b f4		 mov	 esi, esp
  00077	50		 push	 eax
  00078	ff 15 00 00 00
	00		 call	 DWORD PTR __imp__atoi
  0007e	83 c4 04	 add	 esp, 4
  00081	3b f4		 cmp	 esi, esp
  00083	e8 00 00 00 00	 call	 __RTC_CheckEsp
  00088	8b 55 0c	 mov	 edx, DWORD PTR _numberofentries$[ebp]
  0008b	89 02		 mov	 DWORD PTR [edx], eax

; 12   : 		free(chartmp);

  0008d	8b f4		 mov	 esi, esp
  0008f	8b 45 ec	 mov	 eax, DWORD PTR _chartmp$1[ebp]
  00092	50		 push	 eax
  00093	ff 15 00 00 00
	00		 call	 DWORD PTR __imp__free
  00099	83 c4 04	 add	 esp, 4
  0009c	3b f4		 cmp	 esi, esp
  0009e	e8 00 00 00 00	 call	 __RTC_CheckEsp
$LN1@openFileAn:

; 13   : 	}
; 14   : 	return tmp;

  000a3	8b 45 f8	 mov	 eax, DWORD PTR _tmp$[ebp]

; 15   : }

  000a6	5f		 pop	 edi
  000a7	5e		 pop	 esi
  000a8	5b		 pop	 ebx
  000a9	81 c4 d8 00 00
	00		 add	 esp, 216		; 000000d8H
  000af	3b ec		 cmp	 ebp, esp
  000b1	e8 00 00 00 00	 call	 __RTC_CheckEsp
  000b6	8b e5		 mov	 esp, ebp
  000b8	5d		 pop	 ebp
  000b9	c3		 ret	 0
_openFileAndGetNumberOfElements ENDP
_TEXT	ENDS
END
